; Function Attrs: nounwind uwtable
define ptr @l_Array_mapMUnsafe_map___at_Lean_Compiler_LCNF_ToLCNF_toLCNF_visitAlt___spec__1___lambda__1(ptr noundef %0, ptr readnone captures(none) %1, ptr noundef %2, ptr noundef %3, ptr noundef %4, ptr noundef %5, ptr noundef %6, ptr noundef %7) local_unnamed_addr #1 {
  %9 = getelementptr inbounds nuw i8, ptr %0, i64 24
  %10 = load ptr, ptr %9, align 8, !tbaa !9
  %11 = ptrtoint ptr %10 to i64
  %12 = and i64 %11, 1
  %.not = icmp eq i64 %12, 0
  br i1 %.not, label %13, label %lean_inc.exit25

13:                                               ; preds = %8
  %.val.i = load i32, ptr %10, align 4, !tbaa !4
  %14 = icmp sgt i32 %.val.i, 0
  br i1 %14, label %15, label %17, !prof !11

15:                                               ; preds = %13
  %16 = add nuw i32 %.val.i, 1
  store i32 %16, ptr %10, align 4, !tbaa !4
  br label %20

17:                                               ; preds = %13
  %.not.i28 = icmp eq i32 %.val.i, 0
  br i1 %.not.i28, label %20, label %18

18:                                               ; preds = %17
  tail call void @lean_inc_ref_cold(ptr noundef nonnull %10) #5
  br label %20

lean_inc.exit25:                                  ; preds = %8
  %19 = tail call ptr @l_Lean_Compiler_LCNF_ToLCNF_applyToAny(ptr noundef %10, ptr noundef %2, ptr poison, ptr poison, ptr poison, ptr poison, ptr noundef %7)
  br label %lean_dec.exit23

20:                                               ; preds = %18, %17, %15
  %21 = tail call ptr @l_Lean_Compiler_LCNF_ToLCNF_applyToAny(ptr noundef nonnull %10, ptr noundef %2, ptr poison, ptr poison, ptr poison, ptr poison, ptr noundef %7)
  %22 = load i32, ptr %10, align 4, !tbaa !4
  %23 = icmp sgt i32 %22, 1
  br i1 %23, label %24, label %26, !prof !11

24:                                               ; preds = %20
  %25 = add nsw i32 %22, -1
  store i32 %25, ptr %10, align 4, !tbaa !4
  br label %lean_dec.exit23

26:                                               ; preds = %20
  %.not.i = icmp eq i32 %22, 0
  br i1 %.not.i, label %lean_dec.exit23, label %27

27:                                               ; preds = %26
  tail call void @lean_dec_ref_cold(ptr noundef nonnull %10) #5
  br label %lean_dec.exit23

lean_dec.exit23:                                  ; preds = %27, %26, %24, %lean_inc.exit25
  %28 = phi ptr [ %19, %lean_inc.exit25 ], [ %21, %24 ], [ %21, %26 ], [ %21, %27 ]
  %29 = getelementptr inbounds nuw i8, ptr %28, i64 8
  %30 = load ptr, ptr %29, align 8, !tbaa !9
  %31 = ptrtoint ptr %30 to i64
  %32 = and i64 %31, 1
  %.not35 = icmp eq i64 %32, 0
  br i1 %.not35, label %33, label %lean_inc.exit24

33:                                               ; preds = %lean_dec.exit23
  %.val.i29 = load i32, ptr %30, align 4, !tbaa !4
  %34 = icmp sgt i32 %.val.i29, 0
  br i1 %34, label %35, label %37, !prof !11

35:                                               ; preds = %33
  %36 = add nuw i32 %.val.i29, 1
  store i32 %36, ptr %30, align 4, !tbaa !4
  br label %lean_inc.exit24

37:                                               ; preds = %33
  %.not.i30 = icmp eq i32 %.val.i29, 0
  br i1 %.not.i30, label %lean_inc.exit24, label %38

38:                                               ; preds = %37
  tail call void @lean_inc_ref_cold(ptr noundef nonnull %30) #5
  br label %lean_inc.exit24

lean_inc.exit24:                                  ; preds = %38, %37, %35, %lean_dec.exit23
  %39 = getelementptr inbounds nuw i8, ptr %28, i64 16
  %40 = load ptr, ptr %39, align 8, !tbaa !9
  %41 = ptrtoint ptr %40 to i64
  %42 = and i64 %41, 1
  %.not36 = icmp eq i64 %42, 0
  br i1 %.not36, label %43, label %lean_inc.exit

43:                                               ; preds = %lean_inc.exit24
  %.val.i32 = load i32, ptr %40, align 4, !tbaa !4
  %44 = icmp sgt i32 %.val.i32, 0
  br i1 %44, label %45, label %47, !prof !11

45:                                               ; preds = %43
  %46 = add nuw i32 %.val.i32, 1
  store i32 %46, ptr %40, align 4, !tbaa !4
  br label %lean_inc.exit

47:                                               ; preds = %43
  %.not.i33 = icmp eq i32 %.val.i32, 0
  br i1 %.not.i33, label %lean_inc.exit, label %48

48:                                               ; preds = %47
  tail call void @lean_inc_ref_cold(ptr noundef nonnull %40) #5
  br label %lean_inc.exit

lean_inc.exit:                                    ; preds = %48, %47, %45, %lean_inc.exit24
  %49 = ptrtoint ptr %28 to i64
  %50 = and i64 %49, 1
  %.not37 = icmp eq i64 %50, 0
  br i1 %.not37, label %51, label %lean_dec.exit

51:                                               ; preds = %lean_inc.exit
  %52 = load i32, ptr %28, align 4, !tbaa !4
  %53 = icmp sgt i32 %52, 1
  br i1 %53, label %54, label %56, !prof !11

54:                                               ; preds = %51
  %55 = add nsw i32 %52, -1
  store i32 %55, ptr %28, align 4, !tbaa !4
  br label %lean_dec.exit

56:                                               ; preds = %51
  %.not.i26 = icmp eq i32 %52, 0
  br i1 %.not.i26, label %lean_dec.exit, label %57

57:                                               ; preds = %56
  tail call void @lean_dec_ref_cold(ptr noundef nonnull %28) #5
  br label %lean_dec.exit

lean_dec.exit:                                    ; preds = %57, %56, %54, %lean_inc.exit
  %58 = tail call ptr @l___private_Lean_Compiler_LCNF_CompilerM_0__Lean_Compiler_LCNF_updateParamImp(ptr noundef nonnull %0, ptr noundef %30, ptr noundef %3, ptr noundef %4, ptr noundef %5, ptr noundef %6, ptr noundef %40) #5
  ret ptr %58
}